target datalayout = "e-m:e-p270:32:32-p271:32:32-p272:64:64-i64:64-i128:128-f80:128-n8:16:32:64-S128"
target triple = "x86_64-pc-linux-gnu"

%struct._zend_array = type { %struct._zend_refcounted_h, %union.anon.0, i32, %union.anon.1, i32, i32, i32, i32, i64, ptr }
%struct._zend_refcounted_h = type { i32, %union.anon }
%union.anon = type { i32 }
%union.anon.0 = type { i32 }
%union.anon.1 = type { ptr }
%struct.pdo_sqlstate_info = type { [5 x i8], ptr }

@err_hash = internal global %struct._zend_array zeroinitializer, align 8

; Function Attrs: nounwind uwtable
define hidden ptr @pdo_sqlstate_state_to_description(ptr noundef %0) #0 {
  %2 = alloca ptr, align 8
  %3 = alloca ptr, align 8
  %4 = alloca ptr, align 8
  %5 = alloca i64, align 8
  %6 = alloca ptr, align 8
  %7 = alloca ptr, align 8
  %8 = alloca ptr, align 8
  %9 = alloca ptr, align 8
  store ptr %0, ptr %8, align 8
  %10 = load ptr, ptr %8, align 8
  store ptr @err_hash, ptr %3, align 8
  store ptr %10, ptr %4, align 8
  store i64 5, ptr %5, align 8
  %11 = load ptr, ptr %3, align 8
  %12 = load ptr, ptr %4, align 8
  %13 = load i64, ptr %5, align 8
  %14 = call ptr @zend_hash_str_find(ptr noundef %11, ptr noundef %12, i64 noundef %13) #3
  store ptr %14, ptr %6, align 8
  %15 = load ptr, ptr %6, align 8
  %16 = icmp ne ptr %15, null
  br i1 %16, label %17, label %23

17:                                               ; preds = %1
  %18 = load ptr, ptr %6, align 8
  %19 = load ptr, ptr %18, align 8
  %20 = icmp ne ptr %19, null
  call void @llvm.assume(i1 %20)
  %21 = load ptr, ptr %6, align 8
  %22 = load ptr, ptr %21, align 8
  store ptr %22, ptr %2, align 8
  br label %24

23:                                               ; preds = %1
  store ptr null, ptr %2, align 8
  br label %24

24:                                               ; preds = %23, %17
  %25 = load ptr, ptr %2, align 8
  store ptr %25, ptr %9, align 8
  %26 = icmp ne ptr %25, null
  br i1 %26, label %27, label %31

27:                                               ; preds = %24
  %28 = load ptr, ptr %9, align 8
  %29 = getelementptr inbounds %struct.pdo_sqlstate_info, ptr %28, i32 0, i32 1
  %30 = load ptr, ptr %29, align 8
  store ptr %30, ptr %7, align 8
  br label %32

31:                                               ; preds = %24
  store ptr null, ptr %7, align 8
  br label %32

32:                                               ; preds = %31, %27
  %33 = load ptr, ptr %7, align 8
  ret ptr %33
}