; Function Attrs: nounwind uwtable
define hidden ptr @pdo_sqlstate_state_to_description(ptr noundef %0) local_unnamed_addr #0 {
  %2 = tail call ptr @zend_hash_str_find(ptr noundef nonnull @err_hash, ptr noundef %0, i64 noundef 5) #3
  %.not = icmp eq ptr %2, null
  br i1 %.not, label %.thread, label %3

3:                                                ; preds = %1
  %4 = load ptr, ptr %2, align 8, !nonnull !4, !noundef !4
  %5 = getelementptr inbounds i8, ptr %4, i64 8
  %6 = load ptr, ptr %5, align 8
  br label %.thread

.thread:                                          ; preds = %1, %3
  %.09 = phi ptr [ %6, %3 ], [ null, %1 ]
  ret ptr %.09
}